target datalayout = "e-m:e-p270:32:32-p271:32:32-p272:64:64-i64:64-i128:128-f80:128-n8:16:32:64-S128"
target triple = "x86_64-pc-linux-gnu"

%struct.rb_data_type_struct = type { ptr, %struct.anon, ptr, ptr, i64 }
%struct.anon = type { ptr, ptr, ptr, ptr, [1 x ptr] }
%struct.asn1_type_st = type { i32, %union.anon.5 }
%union.anon.5 = type { ptr }

@ePKCS7Error = internal global i64 0, align 8
@rb_eRuntimeError = external global i64, align 8
@ossl_pkcs7_signer_info_type = internal constant %struct.rb_data_type_struct { ptr @.str.76, %struct.anon { ptr null, ptr @ossl_pkcs7_signer_info_free, ptr null, ptr null, [1 x ptr] zeroinitializer }, ptr null, ptr null, i64 33 }, align 8
@.str.73 = private unnamed_addr constant [28 x i8] c"PKCS7si wasn't initialized.\00", align 1

; Function Attrs: nounwind sspstrong uwtable
define internal i64 @ossl_pkcs7si_get_signed_time(i64 noundef %0) #0 {
  %2 = alloca i64, align 8
  %3 = alloca i64, align 8
  %4 = alloca ptr, align 8
  %5 = alloca ptr, align 8
  %6 = alloca i32, align 4
  store i64 %0, ptr %3, align 8, !tbaa !11
  call void @llvm.lifetime.start.p0(i64 8, ptr %4) #16
  call void @llvm.lifetime.start.p0(i64 8, ptr %5) #16
  br label %7

7:                                                ; preds = %1
  %8 = load i64, ptr %3, align 8, !tbaa !11
  %9 = call ptr @rb_check_typeddata(i64 noundef %8, ptr noundef @ossl_pkcs7_signer_info_type)
  store ptr %9, ptr %4, align 8, !tbaa !40
  %10 = load ptr, ptr %4, align 8, !tbaa !40
  %11 = icmp ne ptr %10, null
  br i1 %11, label %14, label %12

12:                                               ; preds = %7
  %13 = load i64, ptr @rb_eRuntimeError, align 8, !tbaa !11
  call void (i64, ptr, ...) @ossl_raise(i64 noundef %13, ptr noundef @.str.73) #17
  unreachable

14:                                               ; preds = %7
  br label %15

15:                                               ; preds = %14
  br label %16

16:                                               ; preds = %15
  %17 = load ptr, ptr %4, align 8, !tbaa !40
  %18 = call ptr @PKCS7_get_signed_attribute(ptr noundef %17, i32 noundef 52)
  store ptr %18, ptr %5, align 8, !tbaa !79
  %19 = icmp ne ptr %18, null
  br i1 %19, label %22, label %20

20:                                               ; preds = %16
  %21 = load i64, ptr @ePKCS7Error, align 8, !tbaa !11
  call void (i64, ptr, ...) @ossl_raise(i64 noundef %21, ptr noundef null) #17
  unreachable

22:                                               ; preds = %16
  %23 = load ptr, ptr %5, align 8, !tbaa !79
  %24 = getelementptr inbounds nuw %struct.asn1_type_st, ptr %23, i32 0, i32 0
  %25 = load i32, ptr %24, align 8, !tbaa !81
  %26 = icmp eq i32 %25, 23
  br i1 %26, label %27, label %32

27:                                               ; preds = %22
  %28 = load ptr, ptr %5, align 8, !tbaa !79
  %29 = getelementptr inbounds nuw %struct.asn1_type_st, ptr %28, i32 0, i32 1
  %30 = load ptr, ptr %29, align 8, !tbaa !19
  %31 = call i64 @asn1time_to_time(ptr noundef %30)
  store i64 %31, ptr %2, align 8
  store i32 1, ptr %6, align 4
  br label %33

32:                                               ; preds = %22
  store i64 4, ptr %2, align 8
  store i32 1, ptr %6, align 4
  br label %33

33:                                               ; preds = %32, %27
  call void @llvm.lifetime.end.p0(i64 8, ptr %5) #16
  call void @llvm.lifetime.end.p0(i64 8, ptr %4) #16
  %34 = load i64, ptr %2, align 8
  ret i64 %34
}