; Function Attrs: nounwind sspstrong uwtable
define internal i64 @ossl_pkcs7si_get_signed_time(i64 noundef %0) #0 {
  %2 = tail call ptr @rb_check_typeddata(i64 noundef %0, ptr noundef nonnull @ossl_pkcs7_signer_info_type) #5
  %.not = icmp eq ptr %2, null
  br i1 %.not, label %3, label %5

3:                                                ; preds = %1
  %4 = load i64, ptr @rb_eRuntimeError, align 8, !tbaa !6
  tail call void (i64, ptr, ...) @ossl_raise(i64 noundef %4, ptr noundef nonnull @.str.73) #6
  unreachable

5:                                                ; preds = %1
  %6 = tail call ptr @PKCS7_get_signed_attribute(ptr noundef nonnull %2, i32 noundef 52) #5
  %.not7 = icmp eq ptr %6, null
  br i1 %.not7, label %7, label %9

7:                                                ; preds = %5
  %8 = load i64, ptr @ePKCS7Error, align 8, !tbaa !6
  tail call void (i64, ptr, ...) @ossl_raise(i64 noundef %8, ptr noundef null) #6
  unreachable

9:                                                ; preds = %5
  %10 = load i32, ptr %6, align 8, !tbaa !74
  %11 = icmp eq i32 %10, 23
  br i1 %11, label %12, label %16

12:                                               ; preds = %9
  %13 = getelementptr inbounds nuw i8, ptr %6, i64 8
  %14 = load ptr, ptr %13, align 8, !tbaa !17
  %15 = tail call i64 @asn1time_to_time(ptr noundef %14) #5
  br label %16

16:                                               ; preds = %9, %12
  %.0 = phi i64 [ %15, %12 ], [ 4, %9 ]
  ret i64 %.0
}